; Function Attrs: mustprogress uwtable
define hidden void @_ZNK4cvc58internal16DTypeConstructor14getCardinalityENS0_8TypeNodeE(ptr noalias nonnull sret(%"class.cvc5::internal::Cardinality") align 8 %agg.result, ptr nocapture noundef nonnull readonly align 8 dereferenceable(264) %this, ptr nocapture noundef readnone %t) local_unnamed_addr #3 align 2 personality ptr @__gxx_personality_v0 {
entry:
  %ref.tmp = alloca %"class.cvc5::internal::Cardinality", align 8
  %ref.tmp2 = alloca %"class.cvc5::internal::TypeNode", align 8
  tail call void @_ZN4cvc58internal11CardinalityC1El(ptr noundef nonnull align 8 dereferenceable(16) %agg.result, i64 noundef 1)
  %d_args = getelementptr inbounds i8, ptr %this, i64 80
  %_M_finish.i = getelementptr inbounds i8, ptr %this, i64 88
  %0 = load ptr, ptr %_M_finish.i, align 8
  %1 = load ptr, ptr %d_args, align 8
  %cmp9.not = icmp eq ptr %0, %1
  br i1 %cmp9.not, label %nrvo.skipdtor, label %for.body.preheader

for.body.preheader:                               ; preds = %entry
  %sub.ptr.lhs.cast.i = ptrtoint ptr %0 to i64
  %sub.ptr.rhs.cast.i = ptrtoint ptr %1 to i64
  %sub.ptr.sub.i = sub i64 %sub.ptr.lhs.cast.i, %sub.ptr.rhs.cast.i
  %sub.ptr.div.i = ashr exact i64 %sub.ptr.sub.i, 4
  %umax = tail call i64 @llvm.umax.i64(i64 %sub.ptr.div.i, i64 1)
  br label %for.body

for.body:                                         ; preds = %for.body.preheader, %_ZN4cvc58internal8TypeNodeD2Ev.exit
  %i.010 = phi i64 [ %inc, %_ZN4cvc58internal8TypeNodeD2Ev.exit ], [ 0, %for.body.preheader ]
  invoke void @_ZNK4cvc58internal16DTypeConstructor10getArgTypeEm(ptr nonnull sret(%"class.cvc5::internal::TypeNode") align 8 %ref.tmp2, ptr noundef nonnull align 8 dereferenceable(264) %this, i64 noundef %i.010)
          to label %invoke.cont unwind label %lpad

invoke.cont:                                      ; preds = %for.body
  invoke void @_ZNK4cvc58internal8TypeNode14getCardinalityEv(ptr nonnull sret(%"class.cvc5::internal::Cardinality") align 8 %ref.tmp, ptr noundef nonnull align 8 dereferenceable(8) %ref.tmp2)
          to label %invoke.cont4 unwind label %lpad3

invoke.cont4:                                     ; preds = %invoke.cont
  %call7 = invoke noundef nonnull align 8 dereferenceable(16) ptr @_ZN4cvc58internal11CardinalitymLERKS1_(ptr noundef nonnull align 8 dereferenceable(16) %agg.result, ptr noundef nonnull align 8 dereferenceable(16) %ref.tmp)
          to label %invoke.cont6 unwind label %lpad5

invoke.cont6:                                     ; preds = %invoke.cont4
  invoke void @__gmpz_clear(ptr noundef nonnull %ref.tmp)
          to label %_ZN4cvc58internal11CardinalityD2Ev.exit unwind label %terminate.lpad.i.i.i

terminate.lpad.i.i.i:                             ; preds = %invoke.cont6
  %2 = landingpad { ptr, i32 }
          catch ptr null
  %3 = extractvalue { ptr, i32 } %2, 0
  call void @__clang_call_terminate(ptr %3) #25
  unreachable

_ZN4cvc58internal11CardinalityD2Ev.exit:          ; preds = %invoke.cont6
  %4 = load ptr, ptr %ref.tmp2, align 8
  %bf.load.i.i = load i64, ptr %4, align 8
  %5 = and i64 %bf.load.i.i, 1152920405095219200
  %cmp.not.i.i = icmp eq i64 %5, 1152920405095219200
  br i1 %cmp.not.i.i, label %_ZN4cvc58internal8TypeNodeD2Ev.exit, label %if.then.i.i

if.then.i.i:                                      ; preds = %_ZN4cvc58internal11CardinalityD2Ev.exit
  %bf.value.i.i = add i64 %bf.load.i.i, 1152920405095219200
  %bf.shl.i.i = and i64 %bf.value.i.i, 1152920405095219200
  %bf.clear7.i.i = and i64 %bf.load.i.i, -1152920405095219201
  %bf.set.i.i = or disjoint i64 %bf.shl.i.i, %bf.clear7.i.i
  store i64 %bf.set.i.i, ptr %4, align 8
  %cmp12.i.i = icmp eq i64 %bf.shl.i.i, 0
  br i1 %cmp12.i.i, label %if.then13.i.i, label %_ZN4cvc58internal8TypeNodeD2Ev.exit

if.then13.i.i:                                    ; preds = %if.then.i.i
  invoke void @_ZN4cvc58internal4expr9NodeValue15markForDeletionEv(ptr noundef nonnull align 8 dereferenceable(16) %4)
          to label %_ZN4cvc58internal8TypeNodeD2Ev.exit unwind label %terminate.lpad.i

terminate.lpad.i:                                 ; preds = %if.then13.i.i
  %6 = landingpad { ptr, i32 }
          catch ptr null
  %7 = extractvalue { ptr, i32 } %6, 0
  call void @__clang_call_terminate(ptr %7) #25
  unreachable

_ZN4cvc58internal8TypeNodeD2Ev.exit:              ; preds = %_ZN4cvc58internal11CardinalityD2Ev.exit, %if.then.i.i, %if.then13.i.i
  %inc = add nuw i64 %i.010, 1
  %exitcond.not = icmp eq i64 %inc, %umax
  br i1 %exitcond.not, label %nrvo.skipdtor, label %for.body, !llvm.loop !32

lpad:                                             ; preds = %for.body
  %8 = landingpad { ptr, i32 }
          cleanup
  br label %ehcleanup8

lpad3:                                            ; preds = %invoke.cont
  %9 = landingpad { ptr, i32 }
          cleanup
  br label %ehcleanup

lpad5:                                            ; preds = %invoke.cont4
  %10 = landingpad { ptr, i32 }
          cleanup
  invoke void @__gmpz_clear(ptr noundef nonnull %ref.tmp)
          to label %ehcleanup unwind label %terminate.lpad.i.i.i5

terminate.lpad.i.i.i5:                            ; preds = %lpad5
  %11 = landingpad { ptr, i32 }
          catch ptr null
  %12 = extractvalue { ptr, i32 } %11, 0
  call void @__clang_call_terminate(ptr %12) #25
  unreachable

ehcleanup:                                        ; preds = %lpad5, %lpad3
  %.pn = phi { ptr, i32 } [ %9, %lpad3 ], [ %10, %lpad5 ]
  call void @_ZN4cvc58internal8TypeNodeD2Ev(ptr noundef nonnull align 8 dereferenceable(8) %ref.tmp2) #22
  br label %ehcleanup8

nrvo.skipdtor:                                    ; preds = %_ZN4cvc58internal8TypeNodeD2Ev.exit, %entry
  ret void

ehcleanup8:                                       ; preds = %ehcleanup, %lpad
  %.pn.pn = phi { ptr, i32 } [ %.pn, %ehcleanup ], [ %8, %lpad ]
  invoke void @__gmpz_clear(ptr noundef nonnull %agg.result)
          to label %_ZN4cvc58internal11CardinalityD2Ev.exit8 unwind label %terminate.lpad.i.i.i7

terminate.lpad.i.i.i7:                            ; preds = %ehcleanup8
  %13 = landingpad { ptr, i32 }
          catch ptr null
  %14 = extractvalue { ptr, i32 } %13, 0
  call void @__clang_call_terminate(ptr %14) #25
  unreachable

_ZN4cvc58internal11CardinalityD2Ev.exit8:         ; preds = %ehcleanup8
  resume { ptr, i32 } %.pn.pn
}